; Function Attrs: mustprogress uwtable
define void @_ZN6casadi10DaeBuilder12add_variableERKNS_2MXE(ptr noundef nonnull align 8 dereferenceable(8) %0, ptr noundef nonnull align 8 dereferenceable(8) %1) local_unnamed_addr #4 align 2 personality ptr @__gxx_personality_v0 {
  %3 = alloca %"class.std::__cxx11::basic_string", align 8
  call void @llvm.lifetime.start.p0(i64 32, ptr nonnull %3) #28
  call void @_ZNK6casadi2MX4nameB5cxx11Ev(ptr dead_on_unwind nonnull writable sret(%"class.std::__cxx11::basic_string") align 8 %3, ptr noundef nonnull align 8 dereferenceable(8) %1)
  %4 = invoke noundef nonnull align 8 dereferenceable(408) ptr @_ZN6casadi10DaeBuilder12new_variableERKNSt7__cxx1112basic_stringIcSt11char_traitsIcESaIcEEEx(ptr noundef nonnull align 8 dereferenceable(8) %0, ptr noundef nonnull align 8 dereferenceable(32) %3, i64 noundef 1)
          to label %5 unwind label %16

5:                                                ; preds = %2
  %6 = load ptr, ptr %3, align 8, !tbaa !11
  %7 = getelementptr inbounds nuw i8, ptr %3, i64 16
  %8 = icmp eq ptr %6, %7
  br i1 %8, label %_ZNKSt7__cxx1112basic_stringIcSt11char_traitsIcESaIcEE11_M_is_localEv.exit.thread.i.i, label %_ZNKSt7__cxx1112basic_stringIcSt11char_traitsIcESaIcEE11_M_is_localEv.exit.i.i

_ZNKSt7__cxx1112basic_stringIcSt11char_traitsIcESaIcEE11_M_is_localEv.exit.thread.i.i: ; preds = %5
  %9 = getelementptr inbounds nuw i8, ptr %3, i64 8
  %10 = load i64, ptr %9, align 8, !tbaa !14
  %11 = icmp ult i64 %10, 16
  call void @llvm.assume(i1 %11)
  br label %_ZNSt7__cxx1112basic_stringIcSt11char_traitsIcESaIcEED2Ev.exit

_ZNKSt7__cxx1112basic_stringIcSt11char_traitsIcESaIcEE11_M_is_localEv.exit.i.i: ; preds = %5
  %12 = load i64, ptr %7, align 8, !tbaa !13
  %13 = add i64 %12, 1
  call void @_ZdlPvm(ptr noundef %6, i64 noundef %13) #29
  br label %_ZNSt7__cxx1112basic_stringIcSt11char_traitsIcESaIcEED2Ev.exit

_ZNSt7__cxx1112basic_stringIcSt11char_traitsIcESaIcEED2Ev.exit: ; preds = %_ZNKSt7__cxx1112basic_stringIcSt11char_traitsIcESaIcEE11_M_is_localEv.exit.thread.i.i, %_ZNKSt7__cxx1112basic_stringIcSt11char_traitsIcESaIcEE11_M_is_localEv.exit.i.i
  call void @llvm.lifetime.end.p0(i64 32, ptr nonnull %3) #28
  %14 = getelementptr inbounds nuw i8, ptr %4, i64 384
  %15 = call noundef nonnull align 8 dereferenceable(8) ptr @_ZN6casadi13GenericSharedINS_12SharedObjectENS_20SharedObjectInternalEEaSERKS3_(ptr noundef nonnull align 8 dereferenceable(8) %14, ptr noundef nonnull align 8 dereferenceable(8) %1)
  ret void

16:                                               ; preds = %2
  %17 = landingpad { ptr, i32 }
          cleanup
  %18 = load ptr, ptr %3, align 8, !tbaa !11
  %19 = getelementptr inbounds nuw i8, ptr %3, i64 16
  %20 = icmp eq ptr %18, %19
  br i1 %20, label %_ZNKSt7__cxx1112basic_stringIcSt11char_traitsIcESaIcEE11_M_is_localEv.exit.thread.i.i6, label %_ZNKSt7__cxx1112basic_stringIcSt11char_traitsIcESaIcEE11_M_is_localEv.exit.i.i5

_ZNKSt7__cxx1112basic_stringIcSt11char_traitsIcESaIcEE11_M_is_localEv.exit.thread.i.i6: ; preds = %16
  %21 = getelementptr inbounds nuw i8, ptr %3, i64 8
  %22 = load i64, ptr %21, align 8, !tbaa !14
  %23 = icmp ult i64 %22, 16
  call void @llvm.assume(i1 %23)
  br label %_ZNSt7__cxx1112basic_stringIcSt11char_traitsIcESaIcEED2Ev.exit7

_ZNKSt7__cxx1112basic_stringIcSt11char_traitsIcESaIcEE11_M_is_localEv.exit.i.i5: ; preds = %16
  %24 = load i64, ptr %19, align 8, !tbaa !13
  %25 = add i64 %24, 1
  call void @_ZdlPvm(ptr noundef %18, i64 noundef %25) #29
  br label %_ZNSt7__cxx1112basic_stringIcSt11char_traitsIcESaIcEED2Ev.exit7

_ZNSt7__cxx1112basic_stringIcSt11char_traitsIcESaIcEED2Ev.exit7: ; preds = %_ZNKSt7__cxx1112basic_stringIcSt11char_traitsIcESaIcEE11_M_is_localEv.exit.thread.i.i6, %_ZNKSt7__cxx1112basic_stringIcSt11char_traitsIcESaIcEE11_M_is_localEv.exit.i.i5
  call void @llvm.lifetime.end.p0(i64 32, ptr nonnull %3) #28
  resume { ptr, i32 } %17
}